target datalayout = "e-m:e-p270:32:32-p271:32:32-p272:64:64-i64:64-i128:128-f80:128-n8:16:32:64-S128"
target triple = "x86_64-pc-linux-gnu"

%struct.redisServer = type { i32, i64, ptr, ptr, ptr, i32, i32, i32, i32, i32, ptr, ptr, ptr, ptr, ptr, i32, i32, i32, i32, i64, i32, i32, i32, i32, ptr, i32, i32, [41 x i8], i32, i64, i32, i32, i32, ptr, ptr, i32, i32, i64, ptr, ptr, ptr, ptr, [2 x i32], i32, i32, i32, i32, i32, i32, [16 x ptr], i32, ptr, ptr, i32, [8 x %struct.connListener], i32, %struct.connListener, ptr, ptr, ptr, ptr, ptr, ptr, ptr, ptr, ptr, ptr, i32, ptr, i32, ptr, [3 x %struct.pause_event], [256 x i8], ptr, i64, i32, i32, [128 x i32], i32, i32, i64, i32, i32, i32, i32, i32, i64, i64, i64, i64, i64, i64, i64, i64, i64, i64, double, i64, i64, i64, i64, i64, i64, i64, i64, i64, i64, i64, i64, i64, i64, i64, i64, i64, i64, i64, i64, i64, double, i64, i64, i64, i64, i64, ptr, i64, i64, i64, %struct.malloc_stats, i64, i64, i64, i64, i64, i64, i64, i64, i64, i64, i64, i64, double, [4 x i64], i64, i64, i64, i64, [128 x i64], [128 x i64], i64, i64, [7 x %struct.anon.2], i64, i64, i64, i64, i64, i64, [4 x %struct.durationStats], i32, i32, i32, i32, i32, i32, i32, i32, i32, i32, i32, i32, i64, i32, i32, i32, i32, i64, i64, i32, i32, i32, i32, i32, ptr, [3 x %struct.clientBufferLimitsConfig], i32, i32, i32, ptr, i32, i32, i32, i32, i32, i32, ptr, ptr, i32, i32, i64, i64, i64, i64, i64, i32, i32, ptr, i32, i32, i64, i64, i64, i64, i64, i32, i32, i64, i32, i32, i32, i32, i32, i32, i32, i32, ptr, i32, i64, i64, i64, i64, i32, ptr, i32, ptr, i32, i32, i32, i64, i64, i64, i64, i32, i32, i32, i32, i32, i32, ptr, i32, i32, ptr, i32, i32, i32, [2 x i32], i32, %struct.redisOpArray, i32, ptr, i32, ptr, i32, i32, i32, i32, i32, i32, i32, [41 x i8], [41 x i8], i64, i64, i64, i64, i32, i32, ptr, i64, i64, %struct.replDataBuf, i64, i64, i32, i32, i32, i32, i32, i32, i32, i32, i32, i64, ptr, i64, ptr, ptr, ptr, i32, i32, ptr, ptr, i32, i32, i32, i64, i64, i64, i64, ptr, ptr, i32, ptr, i64, i32, i32, i32, i64, i32, i32, i32, i32, ptr, i32, i32, [41 x i8], i64, i32, ptr, i32, i32, i64, i64, i32, i32, i32, i32, i32, i64, [3 x i32], i32, i32, i32, [10 x i32], ptr, ptr, i32, i64, ptr, ptr, i32, i32, i32, i32, i64, i64, i64, i64, i64, i64, i64, i64, i64, i64, i32, i32, i64, i64, i32, i64, i64, i64, i64, i64, ptr, ptr, i32, ptr, i32, i32, i32, i32, i64, i64, ptr, ptr, i32, i32, i32, i32, i32, ptr, ptr, ptr, i32, i32, i32, i32, i32, i32, i32, i64, i32, i32, i64, i32, i32, i32, i32, i32, i32, i32, i64, ptr, ptr, i64, ptr, i32, %struct.aclInfo, i32, i64, i32, i32, i32, %struct.redisTLSContextConfig, ptr, ptr, ptr, ptr, ptr, i64, i32, ptr, i32, i32, i32, i64, i32, ptr }
%struct.connListener = type { [16 x i32], i32, ptr, i32, i32, ptr, ptr }
%struct.pause_event = type { i32, i64 }
%struct.malloc_stats = type { i64, i64, i64, i64, i64, i64, i64, i64, i64, i64, i64 }
%struct.anon.2 = type { i64, i64, [16 x i64], i32 }
%struct.durationStats = type { i64, i64, i64 }
%struct.clientBufferLimitsConfig = type { i64, i64, i64 }
%struct.redisOpArray = type { ptr, i32, i32 }
%struct.replDataBuf = type { ptr, i64, i64, i64, i64 }
%struct.aclInfo = type { i64, i64, i64, i64 }
%struct.redisTLSContextConfig = type { ptr, ptr, ptr, ptr, ptr, ptr, ptr, ptr, ptr, ptr, ptr, ptr, i32, i32, i32, i32 }
%struct.RedisModuleForkInfo = type { ptr, ptr }

@server = external global %struct.redisServer, align 8
@moduleForkInfo = internal global %struct.RedisModuleForkInfo zeroinitializer, align 8
@.str.102 = private unnamed_addr constant [39 x i8] c"Killing running module fork child: %ld\00", align 1

; Function Attrs: nounwind uwtable
define dso_local i32 @TerminateModuleForkChild(i32 noundef %0, i32 noundef %1) #0 {
  %3 = alloca i32, align 4
  %4 = alloca i32, align 4
  %5 = alloca i32, align 4
  %6 = alloca i32, align 4
  store i32 %0, ptr %4, align 4, !tbaa !29
  store i32 %1, ptr %5, align 4, !tbaa !29
  %7 = load i32, ptr getelementptr inbounds nuw (%struct.redisServer, ptr @server, i32 0, i32 44), align 4, !tbaa !697
  %8 = icmp ne i32 %7, 4
  br i1 %8, label %13, label %9

9:                                                ; preds = %2
  %10 = load i32, ptr getelementptr inbounds nuw (%struct.redisServer, ptr @server, i32 0, i32 43), align 8, !tbaa !698
  %11 = load i32, ptr %4, align 4, !tbaa !29
  %12 = icmp ne i32 %10, %11
  br i1 %12, label %13, label %14

13:                                               ; preds = %9, %2
  store i32 -1, ptr %3, align 4
  br label %39

14:                                               ; preds = %9
  call void @llvm.lifetime.start.p0(i64 4, ptr %6) #15
  br label %15

15:                                               ; preds = %14
  %16 = load i32, ptr getelementptr inbounds nuw (%struct.redisServer, ptr @server, i32 0, i32 159), align 8, !tbaa !101
  %17 = icmp slt i32 1, %16
  br i1 %17, label %18, label %19

18:                                               ; preds = %15
  br label %23

19:                                               ; preds = %15
  %20 = load i32, ptr getelementptr inbounds nuw (%struct.redisServer, ptr @server, i32 0, i32 43), align 8, !tbaa !698
  %21 = sext i32 %20 to i64
  call void (i32, ptr, ...) @_serverLog(i32 noundef 1, ptr noundef @.str.102, i64 noundef %21)
  br label %22

22:                                               ; preds = %19
  br label %23

23:                                               ; preds = %22, %18
  %24 = load i32, ptr getelementptr inbounds nuw (%struct.redisServer, ptr @server, i32 0, i32 43), align 8, !tbaa !698
  %25 = call i32 @kill(i32 noundef %24, i32 noundef 10) #15
  %26 = icmp ne i32 %25, -1
  br i1 %26, label %27, label %38

27:                                               ; preds = %23
  %28 = load i32, ptr %5, align 4, !tbaa !29
  %29 = icmp ne i32 %28, 0
  br i1 %29, label %30, label %38

30:                                               ; preds = %27
  br label %31

31:                                               ; preds = %36, %30
  %32 = load i32, ptr getelementptr inbounds nuw (%struct.redisServer, ptr @server, i32 0, i32 43), align 8, !tbaa !698
  %33 = call i32 @waitpid(i32 noundef %32, ptr noundef %6, i32 noundef 0)
  %34 = load i32, ptr getelementptr inbounds nuw (%struct.redisServer, ptr @server, i32 0, i32 43), align 8, !tbaa !698
  %35 = icmp ne i32 %33, %34
  br i1 %35, label %36, label %37

36:                                               ; preds = %31
  br label %31, !llvm.loop !699

37:                                               ; preds = %31
  br label %38

38:                                               ; preds = %37, %27, %23
  call void @resetChildState()
  store ptr null, ptr @moduleForkInfo, align 8, !tbaa !694
  store ptr null, ptr getelementptr inbounds nuw (%struct.RedisModuleForkInfo, ptr @moduleForkInfo, i32 0, i32 1), align 8, !tbaa !696
  store i32 0, ptr %3, align 4
  call void @llvm.lifetime.end.p0(i64 4, ptr %6) #15
  br label %39

39:                                               ; preds = %38, %13
  %40 = load i32, ptr %3, align 4
  ret i32 %40
}

; Function Attrs: nounwind uwtable
define dso_local i32 @RM_KillForkChild(i32 noundef %0) #0 {
  %2 = alloca i32, align 4
  %3 = alloca i32, align 4
  store i32 %0, ptr %3, align 4, !tbaa !29
  %4 = load i32, ptr %3, align 4, !tbaa !29
  %5 = call i32 @TerminateModuleForkChild(i32 noundef %4, i32 noundef 1)
  %6 = icmp eq i32 %5, 0
  br i1 %6, label %7, label %8

7:                                                ; preds = %1
  store i32 0, ptr %2, align 4
  br label %9

8:                                                ; preds = %1
  store i32 1, ptr %2, align 4
  br label %9

9:                                                ; preds = %8, %7
  %10 = load i32, ptr %2, align 4
  ret i32 %10
}