; Function Attrs: nounwind uwtable
define dso_local range(i32 0, 2) i32 @RM_KillForkChild(i32 noundef %0) #0 {
  %2 = alloca i32, align 4
  %3 = load i32, ptr getelementptr inbounds nuw (i8, ptr @server, i64 308), align 4, !tbaa !592
  %.not.i = icmp eq i32 %3, 4
  %4 = load i32, ptr getelementptr inbounds nuw (i8, ptr @server, i64 304), align 8
  %.not4.i = icmp eq i32 %4, %0
  %or.cond6.i = select i1 %.not.i, i1 %.not4.i, i1 false
  br i1 %or.cond6.i, label %5, label %TerminateModuleForkChild.exit

5:                                                ; preds = %1
  call void @llvm.lifetime.start.p0(i64 4, ptr nonnull %2) #35
  %6 = load i32, ptr getelementptr inbounds nuw (i8, ptr @server, i64 6288), align 8, !tbaa !90
  %7 = icmp sgt i32 %6, 1
  br i1 %7, label %10, label %8

8:                                                ; preds = %5
  %9 = sext i32 %0 to i64
  tail call void (i32, ptr, ...) @_serverLog(i32 noundef 1, ptr noundef nonnull @.str.102, i64 noundef %9) #35
  %.pre.i = load i32, ptr getelementptr inbounds nuw (i8, ptr @server, i64 304), align 8, !tbaa !593
  br label %10

10:                                               ; preds = %8, %5
  %11 = phi i32 [ %0, %5 ], [ %.pre.i, %8 ]
  %12 = tail call i32 @kill(i32 noundef %11, i32 noundef 10) #35
  %.not = icmp eq i32 %12, -1
  br i1 %.not, label %.loopexit, label %.preheader.preheader.i

.preheader.preheader.i:                           ; preds = %10
  %.pre7.i = load i32, ptr getelementptr inbounds nuw (i8, ptr @server, i64 304), align 8, !tbaa !593
  br label %.preheader.i

.preheader.i:                                     ; preds = %.preheader.i, %.preheader.preheader.i
  %13 = phi i32 [ %.pre7.i, %.preheader.preheader.i ], [ %15, %.preheader.i ]
  %14 = call i32 @waitpid(i32 noundef %13, ptr noundef nonnull %2, i32 noundef 0) #35
  %15 = load i32, ptr getelementptr inbounds nuw (i8, ptr @server, i64 304), align 8, !tbaa !593
  %.not5.i = icmp eq i32 %14, %15
  br i1 %.not5.i, label %.loopexit, label %.preheader.i, !llvm.loop !594

.loopexit:                                        ; preds = %.preheader.i, %10
  call void @resetChildState() #35
  store ptr null, ptr @moduleForkInfo.0, align 8, !tbaa !589
  store ptr null, ptr @moduleForkInfo.1, align 8, !tbaa !591
  call void @llvm.lifetime.end.p0(i64 4, ptr nonnull %2) #35
  br label %TerminateModuleForkChild.exit

TerminateModuleForkChild.exit:                    ; preds = %1, %.loopexit
  %16 = phi i32 [ 0, %.loopexit ], [ 1, %1 ]
  ret i32 %16
}